target datalayout = "e-m:e-p270:32:32-p271:32:32-p272:64:64-i64:64-i128:128-f80:128-n8:16:32:64-S128"
target triple = "x86_64-pc-linux-gnu"

%class.DataHash = type { i32, i32, ptr }

; Function Attrs: mustprogress nounwind uwtable
define void @_ZN8DataHashD2Ev(ptr noundef nonnull align 8 dereferenceable(16) %0) unnamed_addr #0 align 2 personality ptr @__gxx_personality_v0 {
  %2 = alloca ptr, align 8
  store ptr %0, ptr %2, align 8
  %3 = load ptr, ptr %2, align 8
  %4 = getelementptr inbounds %class.DataHash, ptr %3, i32 0, i32 1
  invoke void @_Z9cleandataPvm(ptr noundef %4, i64 noundef 4)
          to label %5 unwind label %19

5:                                                ; preds = %1
  %6 = getelementptr inbounds %class.DataHash, ptr %3, i32 0, i32 2
  %7 = load ptr, ptr %6, align 8
  %8 = icmp ne ptr %7, null
  br i1 %8, label %9, label %18

9:                                                ; preds = %5
  %10 = getelementptr inbounds %class.DataHash, ptr %3, i32 0, i32 2
  %11 = load ptr, ptr %10, align 8
  invoke void @_Z9cleandataPvm(ptr noundef %11, i64 noundef 3112)
          to label %12 unwind label %19

12:                                               ; preds = %9
  %13 = getelementptr inbounds %class.DataHash, ptr %3, i32 0, i32 2
  %14 = load ptr, ptr %13, align 8
  %15 = icmp eq ptr %14, null
  br i1 %15, label %17, label %16

16:                                               ; preds = %12
  call void @_ZdlPv(ptr noundef %14) #9
  br label %17

17:                                               ; preds = %16, %12
  br label %18

18:                                               ; preds = %17, %5
  ret void

19:                                               ; preds = %9, %1
  %20 = landingpad { ptr, i32 }
          catch ptr null
  %21 = extractvalue { ptr, i32 } %20, 0
  call void @__clang_call_terminate(ptr %21) #10
  unreachable
}