; Function Attrs: mustprogress nounwind uwtable
define void @_ZN8DataHashD2Ev(ptr noundef nonnull align 8 dereferenceable(16) %0) unnamed_addr #4 align 2 personality ptr @__gxx_personality_v0 {
  %2 = getelementptr inbounds i8, ptr %0, i64 4
  invoke void @_Z9cleandataPvm(ptr noundef nonnull %2, i64 noundef 4)
          to label %3 unwind label %12

3:                                                ; preds = %1
  %4 = getelementptr inbounds i8, ptr %0, i64 8
  %5 = load ptr, ptr %4, align 8
  %.not = icmp eq ptr %5, null
  br i1 %.not, label %11, label %6

6:                                                ; preds = %3
  invoke void @_Z9cleandataPvm(ptr noundef nonnull %5, i64 noundef 3112)
          to label %7 unwind label %12

7:                                                ; preds = %6
  %8 = load ptr, ptr %4, align 8
  %9 = icmp eq ptr %8, null
  br i1 %9, label %11, label %10

10:                                               ; preds = %7
  tail call void @_ZdlPv(ptr noundef nonnull %8) #12
  br label %11

11:                                               ; preds = %7, %10, %3
  ret void

12:                                               ; preds = %6, %1
  %13 = landingpad { ptr, i32 }
          catch ptr null
  %14 = extractvalue { ptr, i32 } %13, 0
  tail call void @__clang_call_terminate(ptr %14) #13
  unreachable
}